(dp0
S'Canada'
p1
I9322
sS'Solar_eclipse_of_August_12_2045'
p2
I519
sS'Retina'
p3
I5663
sS'Solar_eclipse_of_March_10_2081'
p4
I133
sS'Helioseismology'
p5
I2740
sS'Natural_satellite'
p6
I2227
sS'Saha_equation'
p7
I974
sS'Solar_eclipse_of_April_30_2060'
p8
I273
sS'Solar_eclipse_of_October_23_1976'
p9
I358
sS'List_of_solar_eclipses_in_the_22nd_century'
p10
I100
sS'Zodiacal_light'
p11
I1281
sS'Nodal_period'
p12
I93
sS'Solar_eclipse_of_August_10_1915'
p13
I257
sS'Solar_eclipse_of_May_30_1946'
p14
I55
sS'Solar_wind'
p15
I3551
sS'Solar_eclipse_of_July_12_2056'
p16
I133
sS'List_of_solar_eclipses_in_the_10th_century'
p17
I83
sS'YouTube'
p18
I10148
sS'Apollo_12'
p19
I2823
sS'Solar_eclipse_of_January_16_2075'
p20
I212
sS'Blue_moon'
p21
I2346
sS'Solar_eclipse_of_August_12_2026'
p22
I435
sS'Late_Heavy_Bombardment'
p23
I3307
sS'Siphon'
p24
I8538
sS'Scattering_physics'
p25
I1738
sS'Black_moon'
p26
I697
sS'Solar_eclipse_of_June_2_2095'
p27
I130
sS'Solar_eclipse_of_March_21_2099'
p28
I133
sS'Solar_eclipse_of_July_24_2074'
p29
I133
sS'Lunar_precession'
p30
I350
sS'Solar_eclipse_of_August_9_1896'
p31
I117
sS'Solar_eclipse_of_June_28_1889'
p32
I110
sS'Eclipse_season'
p33
I613
sS'Solar_eclipse_of_December_14_2001'
p34
I332
sS'List_of_solar_eclipses_in_the_9th_century_BC'
p35
I79
sS'Solar_eclipse_of_June_11_2048'
p36
I221
sS'Solar_eclipse_of_January_5_1935'
p37
I304
sS'Supergranulation'
p38
I252
sS'Solar_eclipse_of_March_19_2007'
p39
I165
sS'Solar_System'
p40
I7897
sS'Wind_power'
p41
I10194
sS'ApolloE28093Soyuz_Test_Project'
p42
I3161
sS'Eclipse_of_Thales'
p43
I843
sS'Arthur_Eddington'
p44
I4854
sS'The_Sky_at_Night'
p45
I759
sS'Origin_of_the_Moon'
p46
I1672
sS'List_of_lunar_deities'
p47
I887
sS'Solar_eclipse_of_August_24_2063'
p48
I231
sS'Solar_eclipse_of_July_22_2009'
p49
I1136
sS'Solar_eclipse_of_November_22_1919'
p50
I425
sS'Erwin_Saxl'
p51
I384
sS'Solar_eclipse_of_June_22_2066'
p52
I154
sS'Solar_eclipse_of_December_14_1917'
p53
I148
sS'Solar_eclipse_of_April_28_1911'
p54
I228
sS'Moon'
p55
I10272
sS'Solar_eclipse_of_January_15_1991'
p56
I296
sS'Solar_eclipse_of_August_22_1998'
p57
I192
sS'Space_probe'
p58
I1519
sS'List_of_solar_eclipses_in_the_21st_century'
p59
I394
sS'Diameter'
p60
I790
sS'Magnetic_field_of_the_Moon'
p61
I480
sS'Solar_eclipse_of_October_3_2043'
p62
I178
sS'Solar_eclipse_of_May_20_2012'
p63
I725
sS'Heathrow_Airport'
p64
I7509
sS'Supermoon'
p65
I960
sS'Solar_eclipse_of_June_11_1983'
p66
I308
sS'Wrinkle_ridge'
p67
I285
sS'Solar_eclipse_of_October_3_2005'
p68
I507
sS'List_of_people_with_craters_of_the_Moon_named_after_them'
p69
I1717
sS'Sidereal_month'
p70
I1537
sS'Solar_eclipse_of_February_5_2000'
p71
I153
sS'George_Rigaud'
p72
I206
sS'Digital8'
p73
I1439
sS'Solar_prominence'
p74
I517
sS'Solar_eclipse_of_June_11_2086'
p75
I130
sS'Good_Friday'
p76
I6799
sS'Solar_eclipse_of_May_11_1975'
p77
I146
sS'Diamond_ring_effect'
p78
I575
sS'List_of_lunar_features'
p79
I741
sS'Solar_eclipse_of_July_11_2010'
p80
I810
sS'Solar_eclipse_of_October_12_1958'
p81
I356
sS'HjC3BAki_and_Bil'
p82
I1259
sS'Black_Sun_mythology'
p83
I485
sS'Solar_eclipse_of_September_12_2072'
p84
I170
sS'Solar_eclipse_of_January_25_1963'
p85
I150
sS'Cambridge_University_Press'
p86
I2162
sS'Solar_eclipse_of_April_9_1986'
p87
I146
sS'Orbit_of_the_Moon'
p88
I3229
sS'Plage_astronomy'
p89
I152
sS'Solar_energy'
p90
I5816
sS'Solar_eclipse_of_February_16_2045'
p91
I231
sS'Geology_of_the_Moon'
p92
I4793
sS'Paderborn_Germany'
p93
I1751
sS'Solar_eclipse_of_February_26_2017'
p94
I295
sS'Perihelion'
p95
I549
sS'Lorentz_force'
p96
I4011
sS'Solar_eclipse_of_May_21_1993'
p97
I110
sS'Absorption_line'
p98
I1835
sS'Solar_eclipse_of_February_27_2082'
p99
I133
sS'Solar_eclipse_of_April_29_2014'
p100
I212
sS'Solar_eclipse_of_October_25_2022'
p101
I165
sS'Exploratorium'
p102
I6678
sS'Solar_eclipse_of_October_27_1780'
p103
I187
sS'Solar_eclipse_of_September_2_1997'
p104
I147
sS'Solar_eclipse_of_November_25_2030'
p105
I298
sS'Latin_language'
p106
I7145
sS'Physical_Review_D'
p107
I1065
sS'Book_of_Joshua'
p108
I4388
sS'Solar_eclipse_of_December_12_1871'
p109
I173
sS'Solar_eclipse_of_February_14_1934'
p110
I301
sS'Solar_eclipse_of_January_16_1972'
p111
I295
sS'Integrated_Authority_File'
p112
I227
sS'Lunar_dome'
p113
I367
sS'Bay_of_Bengal'
p114
I3925
sS'Solar_Saros_123'
p115
I30
sS'Solar_eclipse_of_August_2_2027'
p116
I303
sS'Solar_Saros_122'
p117
I30
sS'Solar_eclipse_of_October_10_1912'
p118
I223
sS'The_Moon_is_made_of_green_cheese'
p119
I2181
sS'List_of_extraterrestrial_memorials'
p120
I289
sS'Solar_Saros_120'
p121
I108
sS'Solar_eclipse_of_May_10_2013'
p122
I336
sS'Solar_eclipse_of_August_22_1979'
p123
I99
sS'Solar_eclipse_of_July_13_2075'
p124
I133
sS'Solar_eclipse_of_November_12_1966'
p125
I349
sS'Solar_transition_region'
p126
I524
sS'Solar_eclipse_of_February_17_2026'
p127
I137
sS'Solar_eclipse_of_April_30_2022'
p128
I111
sS'Aeroflot'
p129
I6236
sS'Spectroscopy'
p130
I2500
sS'Solar_eclipse_of_May_22_1724'
p131
I213
sS'Magnetic_flux'
p132
I930
sS'The_Lizard'
p133
I2619
sS'Solar_eclipse_of_March_25_1857'
p134
I196
sS'HCEB1'
p135
I763
sS'Solar_Saros_130'
p136
I30
sS'Solar_eclipse_of_December_6_2067'
p137
I309
sS'Solar_Saros_132'
p138
I30
sS'Heliosphere'
p139
I3483
sS'Solar_Saros_134'
p140
I30
sS'Solar_Saros_135'
p141
I30
sS'Solar_eclipse_of_May_30_1984'
p142
I206
sS'Solar_eclipse_of_June_30_1992'
p143
I187
sS'Solar_Saros_138'
p144
I30
sS'Solar_Saros_139'
p145
I198
sS'Solar_eclipse_of_September_4_2100'
p146
I213
sS'Granule_solar_physics'
p147
I224
sS'Solar_eclipse_of_November_3_1994'
p148
I329
sS'Solar_eclipse_of_April_8_1959'
p149
I178
sS'Star'
p150
I10119
sS'Solar_eclipse_of_January_15_2010'
p151
I944
sS'List_of_solar_eclipses_in_the_20th_century_BC'
p152
I105
sS'Kelvin'
p153
I1476
sS'Goonhilly_Satellite_Earth_Station'
p154
I639
sS'English_Channel'
p155
I5584
sS'Taurus_constellation'
p156
I2450
sS'Lunar_meteorite'
p157
I821
sS'Solar_eclipse_of_January_4_1973'
p158
I294
sS'Ecliptic'
p159
I1947
sS'Crater_of_eternal_darkness'
p160
I65
sS'Solar_eclipse_of_November_22_1984'
p161
I304
sS'Solar_Saros_113'
p162
I59
sS'Particle_number_density'
p163
I398
sS'Solar_eclipse_of_June_21_1982'
p164
I166
sS'Solar_eclipse_of_September_12_2053'
p165
I170
sS'Radio_Television_of_Serbia'
p166
I3158
sS'Pareidolia'
p167
I1523
sS'St_Ives_Cornwall'
p168
I3788
sS'Magnetohydrodynamics'
p169
I2999
sS'Solar_eclipse_of_April_18_1977'
p170
I162
sS'Solar_eclipse_of_August_11_1999'
p171
I1148
sS'Thermal_conductivity'
p172
I4401
sS'Solar_eclipse_of_February_16_1999'
p173
I203
sS'Sungazing'
p174
I150
sS'Solar_eclipse'
p175
I6158
sS'Solar_eclipse_of_July_5_2168'
p176
I275
sS'Solar_eclipses_on_Uranus'
p177
I194
sS'Syzygy_astronomy'
p178
I576
sS'Solar_eclipse_of_January_22_1879'
p179
I180
sS'List_of_solar_eclipses_in_the_11th_century'
p180
I96
sS'Solar_Saros_115'
p181
I30
sS'Solar_eclipse_of_August_3_2073'
p182
I203
sS'Solar_eclipse_of_June_1_2011'
p183
I213
sS'Parmenides'
p184
I3462
sS'Mursili27s_eclipse'
p185
I548
sS'Phil_Whitaker'
p186
I152
sS'Hinode'
p187
I644
sS'Heliophysics'
p188
I431
sS'Solar_eclipse_of_March_30_2052'
p189
I253
sS'List_of_solar_eclipses_visible_from_Ukraine'
p190
I218
sS'Solar_eclipse_of_June_20_1974'
p191
I181
sS'James_Simmons_poet'
p192
I898
sS'Solar_eclipse_of_December_25_1935'
p193
I191
sS'Variable_star'
p194
I5898
sS'Solar_eclipse_of_November_15_2096'
p195
I133
sS'Synchronous_grid_of_Continental_Europe'
p196
I757
sS'Lunar_sample_displays'
p197
I658
sS'Solar_eclipse_of_November_3_1975'
p198
I146
sS'List_of_mountains_on_the_Moon'
p199
I147
sS'Solar_eclipse_of_July_31_1962'
p200
I355
sS'Solar_eclipse_of_July_22_2028'
p201
I197
sS'Library_of_Congress_Control_Number'
p202
I401
sS'Solar_eclipse_of_November_14_2031'
p203
I307
sS'Solar_eclipse_of_May_9_2032'
p204
I197
sS'Solar_eclipse_of_July_3_2084'
p205
I133
sS'Solar_Saros_156'
p206
I36
sS'Solar_eclipses_on_Pluto'
p207
I1763
sS'BBC_One'
p208
I6426
sS'Debye_length'
p209
I1129
sS'Solar_eclipse_of_July_22_1990'
p210
I344
sS'Mir'
p211
I10822
sS'Apogee'
p212
I1410
sS'List_of_solar_eclipses_in_the_20th_century'
p213
I263
sS'Yohkoh'
p214
I827
sS'Solar_time'
p215
I1361
sS'Solar_eclipses_on_Saturn'
p216
I236
sS'Solar_eclipse_of_May_11_2059'
p217
I130
sS'Solar_eclipse_of_August_12_1673'
p218
I441
sS'Elongation_astronomy'
p219
I887
sS'Atlantic_Ocean'
p220
I7511
sS'Estudios_San_Miguel'
p221
I1174
sS'Apsis'
p222
I1410
sS'Lunar_basalt_70017'
p223
I326
sS'Lunar_north_pole'
p224
I219
sS'Solar_eclipse_of_January_27_2093'
p225
I212
sS'List_of_solar_eclipses_in_the_13th_century_BC'
p226
I115
sS'Solar_eclipse_of_April_8_2005'
p227
I357
sS'Solar_eclipse_of_May_6_1883'
p228
I323
sS'Solar_Probe_Plus'
p229
I1341
sS'Magnitude_of_an_eclipse'
p230
I588
sS'Solar_Saros_154'
p231
I35
sS'Solar_eclipse_of_March_9_1997'
p232
I299
sS'Astronomy_Picture_of_the_Day'
p233
I629
sS'Solar_eclipse_of_August_23_2044'
p234
I319
sS'List_of_solar_eclipses_in_the_10th_century_BC'
p235
I89
sS'Solar_eclipse_of_October_2_1978'
p236
I106
sS'Solar_eclipse_of_October_1_1921'
p237
I129
sS'Allais_effect'
p238
I1762
sS'Chita_Zabaykalsky_Krai'
p239
I635
sS'Wayback_Machine'
p240
I2627
sS'Solar_eclipse_of_June_17_1909'
p241
I195
sS'Moon_rabbit'
p242
I1499
sS'Solar_eclipse_of_July_2_2038'
p243
I222
sS'Rille'
p244
I512
sS'Banknote'
p245
I6251
sS'List_of_solar_eclipses_in_the_14th_century_BC'
p246
I89
sS'Solar_eclipse_of_June_10_2002'
p247
I279
sS'Solar_eclipse_of_February_14_1915'
p248
I335
sS'List_of_solar_eclipses_in_the_19th_century_BC'
p249
I85
sS'Solar_eclipse_of_September_9_1904'
p250
I327
sS'Serbia'
p251
I14703
sS'Solar_eclipse_of_December_14_1955'
p252
I478
sS'Annulus_mathematics'
p253
I346
sS'Solar_eclipse_of_June_3_2114'
p254
I244
sS'Standard_solar_model'
p255
I3108
sS'Film'
p256
I7388
sS'Solar_eclipse_of_April_19_1939'
p257
I173
sS'Plasma_physics'
p258
I4295
sS'Tachocline'
p259
I290
sS'Internal_structure_of_the_Moon'
p260
I588
sS'Black_Sea'
p261
I5708
sS'Degree_of_arc'
p262
I1014
sS'Solar_eclipse_of_April_20_2061'
p263
I170
sS'Spectral_line'
p264
I1835
sS'Solar_eclipse_of_April_8_1921'
p265
I151
sS'Supernatural'
p266
I3392
sS'Russian_Academy_of_Sciences'
p267
I2943
sS'Solar_eclipse_of_June_28_1908'
p268
I206
sS'Solar_eclipse_of_July_30_1935'
p269
I149
sS'Solar_eclipse_of_August_29_1867'
p270
I136
sS'Solar_eclipse_of_January_3_1908'
p271
I258
sS'Solar_eclipse_of_July_23_2093'
p272
I133
sS'Umbra'
p273
I302
sS'Solar_eclipse_of_November_4_2078'
p274
I203
sS'Solar_eclipse_of_January_6_2019'
p275
I169
sS'Solar_eclipse_of_July_16_2186'
p276
I474
sS'Solar_physics'
p277
I1105
sS'Electron'
p278
I8621
sS'Solar_observation'
p279
I3298
sS'Solar_eclipse_of_October_24_2079'
p280
I173
sS'Solar_eclipse_of_February_7_2092'
p281
I133
sS'Solar_eclipse_of_January_3_1927'
p282
I160
sS'Solar_eclipse_of_September_14_2099'
p283
I406
sS'Solar_eclipse_of_February_17_2064'
p284
I133
sS'Solar_eclipse_of_July_20_1944'
p285
I219
sS'Solar_eclipse_of_May_1_2079'
p286
I175
sS'Einar_TandbergHanssen'
p287
I300
sS'Solar_eclipse_of_January_27_2074'
p288
I133
sS'Spicule_solar_physics'
p289
I272
sS'Solar_eclipse_of_October_22_1911'
p290
I304
sS'Solar_eclipse_of_March_31_2071'
p291
I133
sS'Solar_eclipse_of_July_24_2055'
p292
I203
sS'Concorde'
p293
I13869
sS'Solar_eclipse_of_February_28_2063'
p294
I138
sS'Solar_Saros_149'
p295
I30
sS'Gamma_eclipse'
p296
I494
sS'Solar_eclipse_of_May_18_1901'
p297
I263
sS'Solar_eclipse_of_October_1_1940'
p298
I243
sS'Predictive_power'
p299
I399
sS'Solar_Saros_142'
p300
I52
sS'FK_Comae_Berenices'
p301
I61
sS'Solar_Saros_144'
p302
I30
sS'Solar_eclipse_of_July_1_2011'
p303
I237
sS'Solar_Saros_146'
p304
I30
sS'PubMed_Identifier'
p305
I830
sS'Facula'
p306
I208
sS'Solar_eclipse_of_March_18_1969'
p307
I296
sS'Solar_eclipse_of_April_29_1976'
p308
I295
sS'Solar_eclipse_of_March_9_2035'
p309
I211
sS'India'
p310
I9621
sS'Solar_eclipse_of_August_31_1932'
p311
I162
sS'Bengt_EdlC3A9n'
p312
I267
sS'Solar_eclipse_of_July_20_1982'
p313
I106
sS'Solar_eclipse_of_August_2_2046'
p314
I134
sS'Solar_eclipse_of_April_20_2023'
p315
I284
sS'Solar_eclipse_of_January_14_1926'
p316
I336
sS'Sputtering'
p317
I1472
sS'Solar_eclipse_of_August_19_1887'
p318
I218
sS'Solar_eclipse_of_March_20_2034'
p319
I247
sS'Solar_eclipse_of_August_1_2008'
p320
I1022
sS'List_of_solar_eclipses_in_the_25th_century'
p321
I91
sS'Fred_Espenak'
p322
I326
sS'Solar_eclipse_of_December_4_1983'
p323
I408
sS'Duncan_Steel'
p324
I1000
sS'Apollo_17_lunar_sample_display'
p325
I1410
sS'Solar_eclipse_of_April_9_2043'
p326
I277
sS'Solar_eclipse_of_January_4_1992'
p327
I310
sS'Colonization_of_the_Moon'
p328
I8290
sS'Solar_eclipse_of_December_4_2021'
p329
I230
sS'Naked_eye'
p330
I1488
sS'Solar_minimum'
p331
I652
sS'Symmetric'
p332
I2125
sS'International_Space_Station'
p333
I16585
sS'Solar_eclipse_of_January_5_2057'
p334
I322
sS'Xerxes_I'
p335
I2416
sS'Solar_eclipse_of_September_21_1941'
p336
I263
sS'Solar_eclipse_of_November_1_1929'
p337
I329
sS'Far_side_of_the_Moon'
p338
I2452
sS'Airport_TV_series'
p339
I637
sS'Coronagraph'
p340
I1330
sS'Solar_eclipse_of_August_24_2082'
p341
I130
sS'Ascending_node'
p342
I468
sS'Solar_eclipse_of_May_20_1966'
p343
I216
sS'Solar_eclipse_of_December_27_2084'
p344
I234
sS'Insitu'
p345
I2953
sS'Halys_River'
p346
I341
sS'Solar_eclipse_of_July_18_1860'
p347
I123
sS'Solar_dynamo'
p348
I494
sS'Solar_eclipse_of_June_8_1918'
p349
I619
sS'Solar_eclipse_of_March_29_2006'
p350
I796
sS'Solar_eclipse_of_February_9_1766'
p351
I109
sS'Astronomy'
p352
I6386
sS'Supraarcade_downflows'
p353
I809
sS'Solar_eclipse_of_February_3_1916'
p354
I318
sS'Solar_eclipse_of_August_29_1886'
p355
I98
sS'Conjunction_astronomy_and_astrology'
p356
I1690
sS'Lunar_geologic_timescale'
p357
I1364
sS'Gravitational_lens'
p358
I2962
sS'Lunar_crater'
p359
I1116
sS'Vice_magazine'
p360
I1638
sS'List_of_missions_to_the_Moon'
p361
I382
sS'Solar_eclipse_of_November_5_2059'
p362
I227
sS'Solar_eclipse_of_November_23_2003'
p363
I256
sS'Second_Persian_invasion_of_Greece'
p364
I7839
sS'Solar_eclipse_of_November_2_1967'
p365
I149
sS'Hill_sphere'
p366
I1240
sS'Solar_eclipse_of_February_6_2027'
p367
I270
sS'Solar_power'
p368
I7879
sS'Heliospheric_current_sheet'
p369
I958
sS'List_of_solar_eclipses_in_the_16th_century_BC'
p370
I93
sS'Solar_eclipse_of_May_17_1882'
p371
I337
sS'Bulgaria'
p372
I8562
sS'Solar_eclipse_of_June_21_2001'
p373
I321
sS'Eclipse_chasers'
p374
I131
sS'Solar_eclipse_of_January_24_1925'
p375
I285
sS'List_of_solar_eclipses_in_the_12th_century_BC'
p376
I85
sS'Solar_eclipse_of_August_21_2017'
p377
I6424
sS'Solar_eclipse_of_October_23_2014'
p378
I284
sS'Solar_eclipse_of_May_28_1900'
p379
I335
sS'Solar_eclipse_of_October_14_2023'
p380
I310
sS'Earthshine'
p381
I1128
sS'Solar_eclipse_of_December_22_1870'
p382
I137
sS'New_moon'
p383
I2288
sS'Hungary'
p384
I15546
sS'List_of_solar_eclipses_in_antiquity'
p385
I31
sS'Digital_object_identifier'
p386
I3006
sS'Dark_moon'
p387
I357
sS'List_of_solar_eclipses_in_the_6th_century'
p388
I109
sS'South_PoleE28093Aitken_basin'
p389
I892
sS'Solar_eclipse_of_August_31_1989'
p390
I106
sS'Solar_eclipse_of_April_6_1875'
p391
I217
sS'Solar_eclipse_of_December_25_2000'
p392
I129
sS'John_Russell_Hind'
p393
I363
sS'Solar_eclipse_of_December_26_2057'
p394
I133
sS'Solar_eclipse_of_July_9_1926'
p395
I164
sS'Solar_eclipse_of_1_May_1185'
p396
I754
sS'NASA'
p397
I7842
sS'Solar_eclipse_of_May_20_2050'
p398
I180
sS'Albert_Einstein'
p399
I11347
sS'Solar_eclipse_of_May_29_1919'
p400
I466
sS'Natural_phenomenon'
p401
I232
sS'Iran'
p402
I16005
sS'Indian_Ocean'
p403
I3074
sS'Sparta'
p404
I8086
sS'List_of_Argentine_films_of_1943'
p405
I47
sS'Lunar_terminator'
p406
I1028
sS'CassiniE28093Huygens'
p407
I7987
sS'Lake_Balaton'
p408
I1056
sS'Belgium'
p409
I8059
sS'IMDb'
p410
I3081
sS'Iraq'
p411
I12149
sS'Earthlight_astronomy'
p412
I221
sS'State_equation'
p413
I3789
sS'Condensation'
p414
I724
sS'Omen'
p415
I1428
sS'Differential_rotation'
p416
I876
sS'BBC'
p417
I11158
sS'Solar_eclipse_of_April_11_2070'
p418
I202
sS'Giantimpact_hypothesis'
p419
I3385
sS'Solar_eclipse_of_April_10_2089'
p420
I133
sS'Solar_eclipse_of_August_1_1943'
p421
I231
sS'Aphelion'
p422
I549
sS'Blindness'
p423
I8086
sS'List_of_solar_eclipses_in_the_27th_century'
p424
I97
sS'Solar_eclipse_of_July_10_1972'
p425
I449
sS'Solar_eclipse_of_September_11_1988'
p426
I152
sS'Earth'
p427
I8574
sS'Solar_eclipse_of_June_8_1956'
p428
I168
sS'Human_history'
p429
I10377
sS'Selenography'
p430
I2209
sS'MikoyanGurevich_MiG21'
p431
I8607
sS'Equator'
p432
I1366
sS'Solar_eclipse_of_June_21_2020'
p433
I268
sS'List_of_maria_on_the_Moon'
p434
I218
sS'Anomalistic_month'
p435
I1537
sS'Lunar_mansion'
p436
I930
sS'List_of_craters_on_the_Moon'
p437
I250
sS'List_of_solar_eclipses_visible_from_the_Philippines'
p438
I406
sS'Line_of_nodes'
p439
I468
sS'Solar_eclipse_of_May_11_2078'
p440
I417
sS'Solar_Saros_153'
p441
I35
sS'Solar_eclipse_of_March_18_1988'
p442
I321
sS'Solar_eclipse_of_September_21_1903'
p443
I129
sS'Solar_eclipse_of_May_30_1965'
p444
I292
sS'Solar_eclipse_of_February_16_1980'
p445
I274
sS'Solar_eclipse_of_September_1_2016'
p446
I197
sS'Solar_eclipse_of_April_29_1995'
p447
I185
sS'Helmet_streamer'
p448
I172
sS'Lunar_eclipse'
p449
I1869
sS'The_Sunday_Times'
p450
I4397
sS'Zhong_Kang'
p451
I198
sS'Photosphere'
p452
I413
sS'List_of_solar_eclipses_in_the_14th_century'
p453
I87
sS'Solar_eclipse_of_May_11_2097'
p454
I130
sS'Inclination'
p455
I1096
sS'Solar_eclipse_of_May_9_1948'
p456
I214
sS'Solar_eclipse_of_January_16_2056'
p457
I133
sS'Phoenix_Books'
p458
I42
sS'Magnetic_field'
p459
I8722
sS'Gregorian_calendar'
p460
I5614
sS'Magnitude_of_eclipse'
p461
I588
sS'Shackleton_crater'
p462
I1416
sS'List_of_solar_eclipses_visible_from_Australia'
p463
I183
sS'Constantinople'
p464
I7994
sS'Germany'
p465
I13251
sS'Solar_eclipse_of_March_10_2100'
p466
I101
sS'List_of_solar_eclipses_in_the_8th_century'
p467
I76
sS'Solar_eclipse_of_February_4_1981'
p468
I161
sS'Solar_eclipse_of_December_14_2020'
p469
I355
sS'Atmosphere_of_the_Moon'
p470
I648
sS'Solar_eclipse_of_August_31_1970'
p471
I174
sS'General_relativity'
p472
I8401
sS'Moreton_wave'
p473
I237
sS'Wolf_number'
p474
I378
sS'Solar_Saros_160'
p475
I33
sS'Solar_eclipse_of_July_29_1878'
p476
I268
sS'Solar_eclipse_of_August_21_1560'
p477
I306
sS'Solar_neutrino'
p478
I794
sS'Transit_of_Venus'
p479
I3903
sS'The_Spectator'
p480
I4707
sS'John_Llewellyn_Rhys_Prize'
p481
I264
sS'Solar_eclipse_of_September_12_1950'
p482
I146
sS'Solar_eclipse_of_December_13_1936'
p483
I309
sS'Penumbra'
p484
I302
sS'Orbital_elements'
p485
I1898
sS'RC3A2mnicu_VC3A2lcea'
p486
I754
sS'List_of_solar_cycles'
p487
I196
sS'Solar_eclipse_of_September_20_1960'
p488
I138
sS'Eclipse_chasing'
p489
I131
sS'Impact_event'
p490
I6124
sS'List_of_solar_eclipses_in_the_3rd_century_BC'
p491
I81
sS'Solar_eclipse_of_August_3_2092'
p492
I133
sS'Solar_eclipse_of_September_23_2090'
p493
I199
sS'Lunar_month'
p494
I1537
sS'Solar_eclipse_of_April_28_1930'
p495
I255
sS'Eclipse_of_the_Sun_film'
p496
I40
sS'Solar_eclipse_of_January_25_1944'
p497
I249
sS'Skylab'
p498
I8950
sS'Shi_Shen'
p499
I256
sS'List_of_solar_eclipses_in_the_7th_century'
p500
I89
sS'Solar_eclipse_of_August_12_1942'
p501
I122
sS'Lunar_node'
p502
I598
sS'List_of_solar_eclipses_in_the_7th_century_BC'
p503
I128
sS'Solar_activity'
p504
I3875
sS'Tide'
p505
I8737
sS'BBC_One_27Balloon27_idents'
p506
I1080
sS'Solar_eclipses_on_Neptune'
p507
I240
sS'Face_on_Moon_South_Pole'
p508
I1041
sS'Solar_eclipse_of_July_13_2037'
p509
I240
sS'Ionisation'
p510
I3480
sS'Solar_eclipse_of_August_21_1933'
p511
I367
sS'Solar_eclipse_of_September_10_1923'
p512
I297
sS'Topography_of_the_Moon'
p513
I252
sS'Apparent_diameter'
p514
I1083
sS'Geographical_pole'
p515
I173
sS'Coronal_hole'
p516
I470
sS'Solar_eclipse_of_December_26_2038'
p517
I263
sS'Stellar_atmosphere'
p518
I287
sS'Near_side_of_the_Moon'
p519
I816
sS'List_of_solar_eclipses_visible_from_Russia'
p520
I462
sS'Jeremy_Spake'
p521
I246
sS'Solar_eclipse_of_May_10_1994'
p522
I372
sS'Solar_eclipse_of_December_26_2019'
p523
I364
sS'Crown_headgear'
p524
I1640
sS'Solar_eclipse_of_November_25_2049'
p525
I317
sS'Solar_eclipse_of_December_3_1918'
p526
I273
sS'Solar_eclipse_of_March_7_1951'
p527
I289
sS'The_Times'
p528
I4597
sS'Lunar_effect'
p529
I2975
sS'Solar_Saros_152'
p530
I35
sS'Solar_retinopathy'
p531
I527
sS'Monoranjan_Bhattacharya'
p532
I300
sS'Solar_eclipse_of_March_6_1905'
p533
I154
sS'Subsolar_point'
p534
I183
sS'Solar_eclipse_of_September_1_1951'
p535
I293
sS'Video_camera'
p536
I592
sS'List_of_solar_eclipses_in_the_29th_century'
p537
I78
sS'Two_thousand_lei'
p538
I387
sS'FR_Yugoslavia'
p539
I4535
sS'KREEP'
p540
I501
sS'Solar_eclipse_of_November_1_1948'
p541
I268
sS'Amasya'
p542
I4612
sS'Solar_eclipse_of_February_15_1961'
p543
I334
sS'Chronology_of_the_ancient_Near_East'
p544
I3200
sS'Soissons'
p545
I877
sS'List_of_solar_eclipses_visible_from_the_United_Kingdom'
p546
I2109
sS'Solar_eclipse_of_November_12_1947'
p547
I319
sS'Solar_eclipse_of_July_28_1851'
p548
I527
sS'Solar_eclipse_of_February_24_1933'
p549
I291
sS'Solar_eclipse_of_August_11_1961'
p550
I173
sS'List_of_solar_eclipses_in_the_30th_century'
p551
I78
sS'Equipartition_theorem'
p552
I6643
sS'Solar_eclipse_of_November_23_1965'
p553
I349
sS'Solar_eclipse_of_June_11_2067'
p554
I133
sS'Solar_eclipse_of_October_24_1995'
p555
I365
sS'Solar_eclipse_of_March_28_1922'
p556
I180
sS'Solar_viewer'
p557
I408
sS'Solar_eclipse_of_April_30_2041'
p558
I228
sS'Daguerreotype'
p559
I8420
sS'Solar_eclipse_of_October_23_1957'
p560
I170
sS'Solar_eclipse_of_May_31_2003'
p561
I226
sS'Chromosphere'
p562
I919
sS'List_of_solar_eclipses_in_the_5th_century_BC'
p563
I83
sS'France'
p564
I20621
sS'Ancient_Greek'
p565
I2865
sS'Solar_Saros_157'
p566
I36
sS'Solar_eclipse_of_May_9_1910'
p567
I144
sS'Solar_Saros_155'
p568
I36
sS'Ancient_Greece'
p569
I7677
sS'Pinhole_camera'
p570
I2028
sS'Solar_Saros_150'
p571
I30
sS'List_of_solar_eclipses_in_the_28th_century'
p572
I86
sS'Solar_eclipse_of_July_8_1842'
p573
I158
sS'Radiation_zone'
p574
I568
sS'Convection_zone'
p575
I551
sS'Solar_Saros_158'
p576
I36
sS'List_of_solar_eclipses_in_the_3rd_century'
p577
I74
sS'Moon_in_fiction'
p578
I7212
sS'Lunar_soil'
p579
I2219
sS'List_of_solar_eclipses_in_the_6th_century_BC'
p580
I122
sS'Xray_telescope'
p581
I1706
sS'Besselian_elements'
p582
I287
sS'Solar_eclipse_of_February_25_1952'
p583
I284
sS'Solar_eclipse_of_April_19_1958'
p584
I303
sS'Solar_eclipse_of_October_2_2024'
p585
I271
sS'Caldera'
p586
I2298
sS'Ray_system'
p587
I519
sS'Gravitational_shielding'
p588
I701
sS'Solar_eclipse_of_January_6_2076'
p589
I170
sS'Solar_eclipse_of_January_26_2028'
p590
I240
sS'Vojvodina'
p591
I3791
sS'Thales'
p592
I8966
sS'Anisotropy'
p593
I1493
sS'Solar_eclipse_of_September_3_2081'
p594
I231
sS'High_Resolution_Coronal_Imager'
p595
I286
sS'Solar_eclipse_of_April_8_1652'
p596
I316
sS'Solar_Saros_136'
p597
I244
sS'Lunar_south_pole'
p598
I1393
sS'Solar_eclipse_of_April_16_1874'
p599
I109
sS'Theia_planet'
p600
I574
sS'Perranporth'
p601
I1006
sS'Solar_eclipse_of_August_11_2018'
p602
I135
sS'Lunisolar_calendar'
p603
I761
sS'Forbidden_line'
p604
I1452
sS'Solar_eclipse_of_July_11_1991'
p605
I534
sS'List_of_solar_eclipses_in_the_8th_century_BC'
p606
I85
sS'Solar_eclipse_of_June_22_2085'
p607
I133
sS'TRACE'
p608
I257
sS'Solar_Saros_141'
p609
I78
sS'Solar_phenomena'
p610
I3875
sS'Solar_eclipse_of_June_30_1954'
p611
I392
sS'Solar_eclipse_of_June_29_1927'
p612
I278
sS'Solar_eclipse_of_March_30_2033'
p613
I247
sS'Solar_eclipse_of_August_10_1934'
p614
I132
sS'Month'
p615
I3007
sS'Assyrian_eclipse'
p616
I481
sS'Coronal_loop'
p617
I1563
sS'Solar_eclipses_in_fiction'
p618
I2061
sS'Solar_eclipse_of_December_25_1954'
p619
I314
sS'Quebec'
p620
I13021
sS'Solar_eclipse_of_November_11_1901'
p621
I299
sS'Long_focus_lens'
p622
I728
sS'Compact_Disc'
p623
I5424
sS'Solar_eclipse_of_May_22_2077'
p624
I130
sS'Solar_eclipse_of_August_30_1905'
p625
I307
sS'Solar_maximum'
p626
I412
sS'Syria'
p627
I11524
sS'Lunar_calendar'
p628
I865
sS'Temperature'
p629
I8302
sS'Solar_Saros_140'
p630
I30
sS'Saros_cycle'
p631
I1900
sS'Solar_eclipse_of_May_20_1947'
p632
I358
sS'Doordarshan'
p633
I1812
sS'Luxembourg'
p634
I5646
sS'Quake_natural_phenomenon'
p635
I911
sS'Solar_eclipse_of_December_24_1973'
p636
I366
sS'List_of_solar_eclipses_in_the_18th_century_BC'
p637
I79
sS'Eclipse_of_the_Sun_novel'
p638
I454
sS'Solar_eclipse_of_March_29_1903'
p639
I148
sS'Solar_eclipse_of_September_7_1820'
p640
I169
sS'List_of_solar_eclipses_in_the_18th_century'
p641
I95
sS'Slovenia'
p642
I14007
sS'The_BMJ'
p643
I1498
sS'Srikakulam'
p644
I659
sS'ArXiv'
p645
I1300
sS'National_Grid_Great_Britain'
p646
I4140
sS'Solar_eclipse_of_January_26_1990'
p647
I173
sS'Passover'
p648
I7766
sS'List_of_solar_eclipses_in_the_1st_century'
p649
I83
sS'Solar_eclipse_of_January_25_1982'
p650
I106
sS'Solar_eclipse_of_October_13_2061'
p651
I136
sS'List_of_solar_eclipses_in_the_2nd_century'
p652
I71
sS'Solar_eclipse_of_September_22_1968'
p653
I146
sS'Solar_eclipse_of_March_17_1923'
p654
I189
sS'Solar_Dynamics_Observatory'
p655
I1352
sS'Solar_eclipse_of_April_21_2088'
p656
I202
sS'Solar_eclipse_of_March_27_1941'
p657
I140
sS'Apollo_program'
p658
I10996
sS'Joseph_von_Fraunhofer'
p659
I1154
sS'Limb_darkening'
p660
I904
sS'Stellar_classification'
p661
I5999
sS'Edmund_Halley'
p662
I2374
sS'List_of_solar_eclipses_in_the_17th_century_BC'
p663
I83
sS'Mildred_Allen'
p664
I272
sS'Solar_eclipse_of_October_12_1939'
p665
I169
sS'Solar_eclipse_of_July_2_2019'
p666
I421
sS'OCLC'
p667
I1739
sS'Solar_eclipse_of_July_9_1945'
p668
I267
sS'Solar_eclipse_of_September_23_2071'
p669
I232
sS'Solar_eclipse_of_August_12_2064'
p670
I170
sS'List_of_lunar_probes'
p671
I261
sS'Solar_eclipse_of_May_19_1985'
p672
I191
sS'List_of_solar_eclipses_in_the_19th_century'
p673
I78
sS'Solar_Saros_145'
p674
I100
sS'Sodium_tail_of_the_Moon'
p675
I134
sS'Orbital_node'
p676
I468
sS'List_of_solar_eclipses_in_the_2nd_century_BC'
p677
I93
sS'Assyrian_people'
p678
I8046
sS'Solar_eclipse_of_April_16_1893'
p679
I214
sS'Amiens'
p680
I20149
sS'Solar_eclipse_of_March_7_1989'
p681
I146
sS'Solar_eclipse_of_November_12_1985'
p682
I156
sS'Apparent_size'
p683
I1083
sS'Moon_landing_conspiracy_theories'
p684
I11207
sS'Cyprus'
p685
I11121
sS'Solar_eclipse_of_October_21_1930'
p686
I228
sS'Solar_eclipse_of_December_15_2039'
p687
I244
sS'Space_weathering'
p688
I1186
sS'Solar_Saros_118'
p689
I30
sS'Solar_Saros_119'
p690
I30
sS'Solar_eclipse_of_July_30_1916'
p691
I141
sS'Solar_Saros_112'
p692
I30
sS'Solar_eclipse_of_November_13_1993'
p693
I173
sS'Solar_Saros_110'
p694
I30
sS'Solar_Saros_111'
p695
I126
sS'Solar_Saros_116'
p696
I30
sS'Solar_Saros_117'
p697
I30
sS'Solar_Saros_114'
p698
I30
sS'Solar_eclipse_of_April_30_1957'
p699
I191
sS'List_of_solar_eclipses_in_the_15th_century'
p700
I88
sS'List_of_valleys_on_the_Moon'
p701
I58
sS'Lunar_observation'
p702
I1553
sS'Flood_mythology'
p703
I1408
sS'Synodic_month'
p704
I1537
sS'Solar_eclipse_of_December_15_1982'
p705
I166
sS'Philosophical_Transactions_of_the_Royal_Society_A'
p706
I334
sS'List_of_solar_eclipses_visible_from_the_United_States'
p707
I79
sS'Moon_rock'
p708
I1916
sS'List_of_solar_eclipses_in_the_12th_century'
p709
I95
sS'Gigawatt'
p710
I1891
sS'Gtype_mainsequence_star'
p711
I538
sS'B26H_Photo_Video'
p712
I843
sS'Total_penumbral_lunar_eclipse'
p713
I370
sS'Solar_eclipse_of_April_20_2042'
p714
I336
sS'Crucifixion_darkness_and_eclipse'
p715
I3257
sS'Solar_eclipse_of_September_11_1969'
p716
I315
sS'Solar_eclipse_of_August_15_2091'
p717
I203
sS'Astronomical_conjunction'
p718
I1690
sS'Coronal_mass_ejection'
p719
I2767
sS'Wet_moon'
p720
I456
sS'Solar_cycle'
p721
I4186
sS'UTC'
p722
I3693
sS'Vouziers'
p723
I235
sS'Solar_eclipse_of_June_8_1937'
p724
I295
sS'Sunlight'
p725
I3852
sS'Solar_eclipse_of_July_10_1907'
p726
I144
sS'Saros_astronomy'
p727
I1900
sS'Turkey'
p728
I16493
sS'Solar_eclipse_of_January_26_2009'
p729
I374
sS'Solar_eclipses_on_Jupiter'
p730
I498
sS'Solar_eclipse_of_January_5_1954'
p731
I192
sS'Solar_eclipse_of_May_9_1929'
p732
I248
sS'Man_in_the_Moon'
p733
I926
sS'Iron'
p734
I10742
sS'Solar_eclipse_of_March_29_2025'
p735
I151
sS'Solar_eclipse_of_June_13_2132'
p736
I275
sS'List_of_solar_eclipses_in_the_24th_century'
p737
I108
sS'Solar_Saros_162'
p738
I42
sS'Solar_Saros_161'
p739
I33
sS'Lists_of_solar_eclipses'
p740
I512
sS'Planetary_objects_proposed_in_religion_astrology_ufology_and_pseudoscience'
p741
I2302
sS'Solar_eclipse_of_March_20_2053'
p742
I173
sS'Solar_telescope'
p743
I713
sS'Solar_eclipse_of_October_4_2070'
p744
I205
sS'Solar_Saros_148'
p745
I30
sS'Solar_eclipse_of_September_23_1699'
p746
I121
sS'International_Standard_Book_Number'
p747
I3906
sS'Solar_core'
p748
I1362
sS'Solar_eclipse_of_November_27_2095'
p749
I229
sS'Solar_eclipse_of_July_31_1981'
p750
I307
sS'Bulgarian_Air_Force'
p751
I5936
sS'Lunar_phase'
p752
I2003
sS'Solar_eclipse_of_March_17_1904'
p753
I202
sS'Solar_eclipse_of_June_1_2030'
p754
I260
sS'Betty_Trask_Award'
p755
I145
sS'List_of_solar_eclipses_in_the_11th_century_BC'
p756
I92
sS'Tourism_on_the_Moon'
p757
I641
sS'Civil_twilight'
p758
I2773
sS'Solar_eclipse_of_December_4_2002'
p759
I359
sS'Bow_shock'
p760
I1024
sS'Occultation'
p761
I1666
sS'Solar_eclipse_of_August_20_1952'
p762
I163
sS'Solar_eclipse_of_September_13_2015'
p763
I147
sS'List_of_solar_eclipses_in_the_16th_century'
p764
I107
sS'List_of_solar_eclipses_in_the_26th_century'
p765
I92
sS'Solar_Saros_151'
p766
I40
sS'Metonic_cycle'
p767
I1092
sS'Libertad_Lamarque'
p768
I2692
sS'List_of_solar_eclipses_in_the_1st_century_BC'
p769
I111
sS'Solar_eclipse_of_December_23_1908'
p770
I163
sS'Argentina'
p771
I13310
sS'Solar_eclipse_of_May_22_2096'
p772
I307
sS'Solar_Saros_143'
p773
I68
sS'Solar_eclipse_of_August_18_1868'
p774
I437
sS'Micrometeorite'
p775
I1341
sS'Solar_eclipse_of_October_2_1959'
p776
I428
sS'Perigee'
p777
I1410
sS'Solar_eclipse_of_April_19_2004'
p778
I282
sS'Eclipse_cycle'
p779
I2790
sS'Lunar_distance_astronomy'
p780
I2158
sS'Solar_eclipse_of_November_19_1816'
p781
I137
sS'Gas'
p782
I4803
sS'Solar_eclipse_of_August_12_1654'
p783
I120
sS'Solar_eclipse_of_January_4_2011'
p784
I404
sS'Floppy_disk'
p785
I5911
sS'Solar_Saros_147'
p786
I30
sS'Solar_eclipse_of_July_20_1963'
p787
I403
sS'Solar_eclipse_of_April_7_1940'
p788
I151
sS'C385ngstrC3B6m'
p789
I781
sS'Solar_eclipse_of_January_1_1889'
p790
I239
sS'Tidal_acceleration'
p791
I3118
sS'Solar_eclipse_of_October_12_1977'
p792
I180
sS'Laurentian_Codex'
p793
I111
sS'Solar_eclipse_of_January_14_1907'
p794
I270
sS'Solar_eclipse_of_April_8_2024'
p795
I964
sS'Eclipse'
p796
I2768
sS'Solar_eclipse_of_October_25_2041'
p797
I232
sS'Corona'
p798
I5281
sS'Sardis'
p799
I1528
sS'Solar_eclipse_of_October_4_2089'
p800
I302
sS'Solar_eclipse_of_March_7_1598'
p801
I148
sS'Solar_eclipse_of_January_5_2038'
p802
I325
sS'Solar_Saros_159'
p803
I33
sS'Solar_eclipse_of_December_17_2066'
p804
I234
sS'Full_moon'
p805
I2300
sS'Pakistan'
p806
I17715
sS'STEREO'
p807
I1807
sS'Solar_eclipse_of_February_7_2008'
p808
I256
sS'Solar_eclipse_of_June_30_1973'
p809
I794
sS'Solar_Saros_131'
p810
I30
sS'Solar_eclipse_of_May_31_2049'
p811
I269
sS'Lineofsight_propagation'
p812
I1322
sS'Infrared'
p813
I4893
sS'Tidal_range'
p814
I474
sS'Doppler_broadening'
p815
I632
sS'Solar_Saros_133'
p816
I275
sS'List_of_solar_eclipses_in_the_15th_century_BC'
p817
I88
sS'Aristotle'
p818
I10956
sS'Cyclotron'
p819
I2681
sS'Highly_charged_ion'
p820
I144
sS'Boltzmann_constant'
p821
I1804
sS'Solar_eclipse_of_June_10_2021'
p822
I293
sS'Focus_optics'
p823
I446
sS'List_of_solar_eclipses_in_the_5th_century'
p824
I92
sS'Solar_eclipse_of_February_26_1979'
p825
I585
sS'Sun'
p826
I10547
sS'Solar_Saros_137'
p827
I30
sS'Inertial_frame_of_reference'
p828
I4983
sS'Perkins_Observatory'
p829
I2169
sS'Solar_eclipse_of_June_19_1936'
p830
I276
sS'Solar_eclipse_of_March_9_2016'
p831
I567
sS'1997_Whitbread_Awards'
p832
I203
sS'Solar_eclipse_of_September_21_2025'
p833
I152
sS'List_of_solar_eclipses_in_the_23rd_century'
p834
I90
sS'Retrograde_motion'
p835
I2701
sS'Draconic_month'
p836
I1537
sS'Solar_flare'
p837
I3549
sS'Solar_eclipse_of_September_12_2034'
p838
I225
sS'Sunspot'
p839
I1644
sS'Apollo_11_lunar_sample_display'
p840
I1257
sS'Space_weather'
p841
I5155
sS'Lunar_water'
p842
I3180
sS'Tests_of_general_relativity'
p843
I5427
sS'United_Kingdom'
p844
I17650
sS'Solar_eclipse_of_June_21_2039'
p845
I238
sS'Medes'
p846
I3685
sS'Solar_eclipse_of_January_16_2094'
p847
I146
sS'Alderney'
p848
I4730
sS'Fortnight'
p849
I372
sS'Solar_eclipse_of_January_22_1898'
p850
I119
sS'Solar_eclipse_of_June_26_1824'
p851
I127
sS'Spectroscope'
p852
I951
sS'Transit_astronomy'
p853
I601
sS'Wang_Chong'
p854
I3342
sS'Solar_eclipse_of_November_13_2012'
p855
I802
sS'Magnetic_pressure'
p856
I399
sS'Solar_Saros_121'
p857
I32
sS'Solar_eclipse_of_March_18_1950'
p858
I173
sS'Solar_Saros_127'
p859
I30
sS'Solar_Saros_126'
p860
I30
sS'Solar_Saros_125'
p861
I30
sS'Solar_Saros_124'
p862
I30
sS'Solar_eclipse_of_February_4_1943'
p863
I330
sS'Solar_Saros_129'
p864
I30
sS'Solar_Saros_128'
p865
I30
sS'Herodotus'
p866
I5428
sS'Russia'
p867
I19802
sS'Solar_eclipse_of_September_23_1987'
p868
I280
sS'Romania'
p869
I9891
sS'Solar_eclipse_of_June_16_1806'
p870
I281
sS'Solar_eclipse_of_February_26_1998'
p871
I281
sS'List_of_solar_eclipses_in_the_9th_century'
p872
I82
sS'Solar_eclipse_of_June_20_1955'
p873
I423
sS'Solar_eclipse_of_March_20_2015'
p874
I1003
sS'Austria'
p875
I11611
sS'Lunar_swirls'
p876
I697
sS'Lunar_magma_ocean'
p877
I143
sS'Novosibirsk'
p878
I2692
sS'Solar_eclipse_of_February_28_2044'
p879
I138
sS'Universe_Today'
p880
I181
sS'List_of_solar_eclipses_in_the_4th_century'
p881
I73
sS'Tidal_force'
p882
I1578
sS'Solar_eclipse_of_November_3_2013'
p883
I400
sS'Angelina_Pagano'
p884
I49
sS'Solar_eclipse_of_July_20_1925'
p885
I161
sS'Libration'
p886
I468
sS'Exploration_of_the_Moon'
p887
I2455
sS'Bibcode'
p888
I296
sS'Solar_eclipse_of_November_15_2077'
p889
I227
sS'Solar_eclipse_of_May_21_2031'
p890
I160
sS'Lunar_Laser_Ranging_experiment'
p891
I849
sS'Tetrad_astronomy'
p892
I30
sS'Solar_eclipse_of_September_21_1922'
p893
I271
sS'Luis_Saslavsky'
p894
I150
sS'Solar_eclipse_of_October_14_2042'
p895
I163
sS'Week'
p896
I3647
sS'Transit_of_Phobos_from_Mars'
p897
I1358
sS'Moon_illusion'
p898
I1942
sS'Solar_eclipse_of_March_29_1987'
p899
I329
sS'Gemini_12'
p900
I1135
sS'Solar_eclipse_of_July_1_2057'
p901
I173
sS'Moon_landing'
p902
I7851
sS'Solar_eclipse_of_July_31_2000'
p903
I162
sS'List_of_solar_eclipses_visible_from_China'
p904
I567
sS'Ionized'
p905
I3480
sS'Lydia'
p906
I2956
sS'Solar_eclipse_of_May_31_2068'
p907
I170
sS'Coronium'
p908
I261
sS'Solar_eclipse_of_February_3_1935'
p909
I105
sS'Solar_eclipse_of_July_1_2000'
p910
I185
sS'Solar_eclipse_of_September_22_2052'
p911
I133
sS'Ocnele_Mari'
p912
I30
sS'Solar_eclipse_of_September_22_2006'
p913
I198
sS'National_Diet_Library'
p914
I1810
sS'Astronomical_transit'
p915
I601
sS'Solar_eclipse_of_January_14_1945'
p916
I167
sS'Solar_eclipse_of_December_24_1992'
p917
I148
sS'Bulgarian_Academy_of_Sciences'
p918
I850
sS'Steady_state'
p919
I1272
sS'HertzsprungE28093Russell_diagram'
p920
I1646
sS'Croatia'
p921
I11193
sS'Corona_disambiguation'
p922
I650
sS'European_Network_of_Transmission_System_Operators_for_Electricity'
p923
I1456
sS'Gravitation_of_the_Moon'
p924
I416
sS'Solar_eclipse_of_June_25_2150'
p925
I296
sS'Peak_of_eternal_light'
p926
I871
sS'Collier27s_Encyclopedia'
p927
I502
sS'Solar_eclipse_of_September_7_1858'
p928
I193
sS'European_Space_Agency'
p929
I6132
sS'Solar_eclipse_of_April_7_1978'
p930
I106
sS'Solar_eclipse_of_October_14_2088'
p931
I133
sS'Solar_eclipse_of_June_24_1778'
p932
I267
sS'Solar_eclipse_of_November_30_1853'
p933
I173
sS'Solar_eclipse_of_October_14_2004'
p934
I112
sS'Vulcan_hypothetical_planet'
p935
I1976
sS'Coronal_seismology'
p936
I1070
sS'Solar_eclipse_of_February_5_2046'
p937
I310
sS'Solar_eclipse_of_September_2_2035'
p938
I300
sS'GSFC'
p939
I3157
sS'Lunar_mare'
p940
I1243
sS'List_of_solar_eclipses_in_the_13th_century'
p941
I84
sS'Solar_eclipse_of_May_3_1715'
p942
I312
sS'Proceedings_of_the_Royal_Society'
p943
I573
sS'John_Fiske_philosopher'
p944
I1081
sS'Space'
p945
I2852
sS'Transit_of_Deimos_from_Mars'
p946
I528
sS'Solar_eclipse_of_July_13_2018'
p947
I129
sS'Solar_eclipse_of_March_7_1932'
p948
I172
sS'Solar_eclipses_on_Mars'
p949
I269
sS'Solar_eclipse_of_September_8_1885'
p950
I105
sS'Shadow_bands'
p951
I375
sS'Double_planet'
p952
I1577
sS'Solar_eclipse_of_April_25_1865'
p953
I232
sS'Solar_eclipse_of_February_25_1914'
p954
I133
sS'Solar_eclipse_of_June_30_1935'
p955
I145
sS'Antoine_Caron'
p956
I639
sS'Digital_camera'
p957
I7076
sS'Solar_eclipse_of_October_3_1986'
p958
I212
sS'Einstein_Observatory'
p959
I286
sS'Solar_eclipse_of_October_12_1996'
p960
I159
sS'Thermal_conduction'
p961
I4193
sS'Solar_eclipse_of_December_2_1937'
p962
I271
sS'Solar_eclipse_of_December_22_1889'
p963
I187
sS'Solar_eclipse_of_August_21_1914'
p964
I282
sS'Solar_eclipse_of_May_29_1938'
p965
I129
sS'Lunar_theory'
p966
I6506
sS'Cornwall'
p967
I8471
sS'Visible_light'
p968
I4768
sS'Solar_eclipse_of_August_7_1869'
p969
I213
sS'Patrick_Moore'
p970
I4395
sS'Solar_eclipse_of_May_26_1854'
p971
I128
sS'Apollo_Lunar_Surface_Experiments_Package'
p972
I822
sS'Solar_eclipse_of_April_17_1996'
p973
I147
sS'List_of_solar_eclipses_in_the_4th_century_BC'
p974
I74
sS'Solar_eclipse_of_December_16_2085'
p975
I227
sS'Solar_eclipse_of_May_19_1928'
p976
I169
sS'Solar_eclipse_of_October_24_2060'
p977
I173
sS'Solar_eclipse_of_November_4_2097'
p978
I149
sS'List_of_solar_eclipses_in_the_17th_century'
p979
I99
sS'Transient_lunar_phenomenon'
p980
I2295
sS'Solar_eclipse_of_March_7_1970'
p981
I511
sS'Moonlight'
p982
I423
sS'Solar_eclipses_on_the_Moon'
p983
I1541
sS'Baily27s_Beads'
p984
I575
sS'Solar_eclipse_of_November_25_2011'
p985
I227
sS'Maurice_Allais'
p986
I1808
sS'Tidal_locking'
p987
I2470
sS'Solar_eclipse_of_February_15_2018'
p988
I187
sS'Solar_eclipse_of_December_5_2048'
p989
I255
sS'Lizard_village'
p990
I229
sS'Transit_of_Mercury'
p991
I1404
sS'Solar_eclipse_of_February_5_1962'
p992
I273
sS'PubMed_Central'
p993
I1320
sS'Evaporation'
p994
I1436
sS'Solar_eclipse_of_August_10_1980'
p995
I221
sS'Crescent'
p996
I2294
sS'Asia_Minor'
p997
I3969
sS'Coronal_radiative_losses'
p998
I1363
sS'Ellipse'
p999
I6794
sS'Solar_eclipse_of_April_17_1912'
p1000
I234
s.